; Function Attrs: mustprogress uwtable
define noundef nonnull align 8 dereferenceable(72) ptr @_ZN4YAML7Emitter17SetLocalPrecisionERKNS_10_PrecisionE(ptr noundef nonnull readonly returned align 8 captures(ret: address, provenance) dereferenceable(72) %0, ptr noundef nonnull readonly align 4 captures(none) dereferenceable(8) %1) local_unnamed_addr #0 align 2 {
  %3 = load i32, ptr %1, align 4, !tbaa !62
  %4 = icmp sgt i32 %3, -1
  br i1 %4, label %5, label %9

5:                                                ; preds = %2
  %6 = load ptr, ptr %0, align 8, !tbaa !3
  %7 = zext nneg i32 %3 to i64
  %8 = tail call noundef zeroext i1 @_ZN4YAML12EmitterState17SetFloatPrecisionEmNS_8FmtScope5valueE(ptr noundef nonnull align 8 dereferenceable(224) %6, i64 noundef %7, i32 noundef 0)
  br label %9

9:                                                ; preds = %5, %2
  %10 = getelementptr inbounds nuw i8, ptr %1, i64 4
  %11 = load i32, ptr %10, align 4, !tbaa !64
  %12 = icmp sgt i32 %11, -1
  br i1 %12, label %13, label %17

13:                                               ; preds = %9
  %14 = load ptr, ptr %0, align 8, !tbaa !3
  %15 = zext nneg i32 %11 to i64
  %16 = tail call noundef zeroext i1 @_ZN4YAML12EmitterState18SetDoublePrecisionEmNS_8FmtScope5valueE(ptr noundef nonnull align 8 dereferenceable(224) %14, i64 noundef %15, i32 noundef 0)
  br label %17

17:                                               ; preds = %13, %9
  ret ptr %0
}